; Function Attrs: mustprogress nounwind uwtable
define internal void @_ZN3gmx12_GLOBAL__N_126HelpExportReStructuredTextD0Ev(ptr noundef nonnull align 8 dereferenceable(48) %0) unnamed_addr #0 align 2 personality ptr @__gxx_personality_v0 {
  store ptr getelementptr inbounds inrange(-16, 72) ({ [11 x ptr] }, ptr @_ZTVN3gmx12_GLOBAL__N_126HelpExportReStructuredTextE, i64 0, i32 0, i64 2), ptr %0, align 8
  %2 = getelementptr inbounds i8, ptr %0, i64 40
  %3 = load ptr, ptr %2, align 8
  %.not.i.i = icmp eq ptr %3, null
  br i1 %.not.i.i, label %_ZNSt10unique_ptrIN3gmx10TextWriterESt14default_deleteIS1_EED2Ev.exit.i, label %_ZNKSt14default_deleteIN3gmx10TextWriterEEclEPS1_.exit.i.i

_ZNKSt14default_deleteIN3gmx10TextWriterEEclEPS1_.exit.i.i: ; preds = %1
  tail call void @_ZN3gmx10TextWriterD1Ev(ptr noundef nonnull align 8 dereferenceable(8) %3) #19
  tail call void @_ZdlPv(ptr noundef nonnull %3) #20
  br label %_ZNSt10unique_ptrIN3gmx10TextWriterESt14default_deleteIS1_EED2Ev.exit.i

_ZNSt10unique_ptrIN3gmx10TextWriterESt14default_deleteIS1_EED2Ev.exit.i: ; preds = %_ZNKSt14default_deleteIN3gmx10TextWriterEEclEPS1_.exit.i.i, %1
  store ptr null, ptr %2, align 8
  %4 = getelementptr inbounds i8, ptr %0, i64 32
  %5 = load ptr, ptr %4, align 8
  %.not.i1.i = icmp eq ptr %5, null
  br i1 %.not.i1.i, label %_ZN3gmx12_GLOBAL__N_126HelpExportReStructuredTextD2Ev.exit, label %_ZNKSt14default_deleteIN3gmx10TextWriterEEclEPS1_.exit.i2.i

_ZNKSt14default_deleteIN3gmx10TextWriterEEclEPS1_.exit.i2.i: ; preds = %_ZNSt10unique_ptrIN3gmx10TextWriterESt14default_deleteIS1_EED2Ev.exit.i
  tail call void @_ZN3gmx10TextWriterD1Ev(ptr noundef nonnull align 8 dereferenceable(8) %5) #19
  tail call void @_ZdlPv(ptr noundef nonnull %5) #20
  br label %_ZN3gmx12_GLOBAL__N_126HelpExportReStructuredTextD2Ev.exit

_ZN3gmx12_GLOBAL__N_126HelpExportReStructuredTextD2Ev.exit: ; preds = %_ZNSt10unique_ptrIN3gmx10TextWriterESt14default_deleteIS1_EED2Ev.exit.i, %_ZNKSt14default_deleteIN3gmx10TextWriterEEclEPS1_.exit.i2.i
  store ptr null, ptr %4, align 8
  %6 = getelementptr inbounds i8, ptr %0, i64 24
  tail call void @_ZN3gmx9HelpLinksD1Ev(ptr noundef nonnull align 8 dereferenceable(8) %6) #19
  tail call void @_ZdlPv(ptr noundef nonnull %0) #20
  ret void
}